target datalayout = "e-m:e-p270:32:32-p271:32:32-p272:64:64-i64:64-i128:128-f80:128-n8:16:32:64-S128"
target triple = "x86_64-pc-linux-gnu"

@.str.193 = private unnamed_addr constant [46 x i8] c"aes_256cbc_decrypt: invalid NULL parameters!\0A\00", align 1
@.str.194 = private unnamed_addr constant [54 x i8] c"aes_256cbc_decrypt: key length: %d, data length: %zu\0A\00", align 1
@.str.195 = private unnamed_addr constant [45 x i8] c"aes_256cbc_decrypt: invalid key length: %u!\0A\00", align 1
@.str.196 = private unnamed_addr constant [37 x i8] c"aes_256cbc_decrypt: len is <32: %zu\0A\00", align 1
@.str.197 = private unnamed_addr constant [50 x i8] c"aes_256cbc_decrypt: Calling rijndaelSetupDecrypt\0A\00", align 1
@.str.198 = private unnamed_addr constant [33 x i8] c"aes_256cbc_decrypt: nrounds = 0\0A\00", align 1
@.str.199 = private unnamed_addr constant [47 x i8] c"aes_256cbc_decrypt: Beginning rijndaelDecrypt\0A\00", align 1
@.str.200 = private unnamed_addr constant [50 x i8] c"aes_256cbc_decrypt: bad pad: %x (extra len: %zu)\0A\00", align 1
@.str.201 = private unnamed_addr constant [39 x i8] c"aes_256cbc_decrypt: bad pad: %x != %x\0A\00", align 1
@.str.202 = private unnamed_addr constant [35 x i8] c"aes_256cbc_decrypt: length is %zu\0A\00", align 1

; Function Attrs: nounwind uwtable
define internal void @aes_256cbc_decrypt(ptr noundef %0, ptr noundef %1, ptr noundef %2, ptr noundef %3, i32 noundef %4, i32 noundef %5) #0 {
  %7 = alloca ptr, align 8
  %8 = alloca ptr, align 8
  %9 = alloca ptr, align 8
  %10 = alloca ptr, align 8
  %11 = alloca i32, align 4
  %12 = alloca i32, align 4
  %13 = alloca [60 x i32], align 16
  %14 = alloca [16 x i8], align 16
  %15 = alloca i64, align 8
  %16 = alloca i8, align 1
  %17 = alloca i8, align 1
  %18 = alloca i32, align 4
  %19 = alloca i32, align 4
  store ptr %0, ptr %7, align 8
  store ptr %1, ptr %8, align 8
  store ptr %2, ptr %9, align 8
  store ptr %3, ptr %10, align 8
  store i32 %4, ptr %11, align 4
  store i32 %5, ptr %12, align 4
  store i64 0, ptr %15, align 8
  %20 = load ptr, ptr %7, align 8
  %21 = icmp eq ptr %20, null
  br i1 %21, label %25, label %22

22:                                               ; preds = %6
  %23 = load ptr, ptr %8, align 8
  %24 = icmp eq ptr %23, null
  br i1 %24, label %25, label %26

25:                                               ; preds = %22, %6
  call void (ptr, ...) @cli_dbgmsg(ptr noundef @.str.193)
  br label %180

26:                                               ; preds = %22
  %27 = load ptr, ptr %8, align 8
  %28 = load i64, ptr %27, align 8
  store i64 %28, ptr %15, align 8
  %29 = load i32, ptr %11, align 4
  %30 = load ptr, ptr %8, align 8
  %31 = load i64, ptr %30, align 8
  call void (ptr, ...) @cli_dbgmsg(ptr noundef @.str.194, i32 noundef %29, i64 noundef %31)
  %32 = load i32, ptr %11, align 4
  %33 = icmp eq i32 %32, 16
  br i1 %33, label %43, label %34

34:                                               ; preds = %26
  %35 = load i32, ptr %11, align 4
  %36 = icmp eq i32 %35, 24
  br i1 %36, label %43, label %37

37:                                               ; preds = %34
  %38 = load i32, ptr %11, align 4
  %39 = icmp eq i32 %38, 32
  br i1 %39, label %43, label %40

40:                                               ; preds = %37
  %41 = load i32, ptr %11, align 4
  %42 = mul i32 %41, 8
  call void (ptr, ...) @cli_dbgmsg(ptr noundef @.str.195, i32 noundef %42)
  br label %180

43:                                               ; preds = %37, %34, %26
  %44 = load i64, ptr %15, align 8
  %45 = icmp ult i64 %44, 32
  br i1 %45, label %46, label %48

46:                                               ; preds = %43
  %47 = load i64, ptr %15, align 8
  call void (ptr, ...) @cli_dbgmsg(ptr noundef @.str.196, i64 noundef %47)
  br label %180

48:                                               ; preds = %43
  %49 = load i32, ptr %12, align 4
  %50 = icmp ne i32 %49, 0
  br i1 %50, label %51, label %58

51:                                               ; preds = %48
  %52 = getelementptr inbounds [16 x i8], ptr %14, i64 0, i64 0
  %53 = load ptr, ptr %7, align 8
  call void @llvm.memcpy.p0.p0.i64(ptr align 16 %52, ptr align 1 %53, i64 16, i1 false)
  %54 = load ptr, ptr %7, align 8
  %55 = getelementptr inbounds i8, ptr %54, i64 16
  store ptr %55, ptr %7, align 8
  %56 = load i64, ptr %15, align 8
  %57 = sub i64 %56, 16
  store i64 %57, ptr %15, align 8
  br label %60

58:                                               ; preds = %48
  %59 = getelementptr inbounds [16 x i8], ptr %14, i64 0, i64 0
  call void @llvm.memset.p0.i64(ptr align 16 %59, i8 0, i64 16, i1 false)
  br label %60

60:                                               ; preds = %58, %51
  call void (ptr, ...) @cli_dbgmsg(ptr noundef @.str.197)
  %61 = getelementptr inbounds [60 x i32], ptr %13, i64 0, i64 0
  %62 = load ptr, ptr %10, align 8
  %63 = load i32, ptr %11, align 4
  %64 = mul i32 %63, 8
  %65 = call i32 @rijndaelSetupDecrypt(ptr noundef %61, ptr noundef %62, i32 noundef %64)
  store i32 %65, ptr %18, align 4
  %66 = load i32, ptr %18, align 4
  %67 = icmp ne i32 %66, 0
  br i1 %67, label %69, label %68

68:                                               ; preds = %60
  call void (ptr, ...) @cli_dbgmsg(ptr noundef @.str.198)
  br label %180

69:                                               ; preds = %60
  call void (ptr, ...) @cli_dbgmsg(ptr noundef @.str.199)
  br label %70

70:                                               ; preds = %98, %69
  %71 = load i64, ptr %15, align 8
  %72 = icmp uge i64 %71, 16
  br i1 %72, label %73, label %107

73:                                               ; preds = %70
  %74 = getelementptr inbounds [60 x i32], ptr %13, i64 0, i64 0
  %75 = load i32, ptr %18, align 4
  %76 = load ptr, ptr %7, align 8
  %77 = load ptr, ptr %9, align 8
  call void @rijndaelDecrypt(ptr noundef %74, i32 noundef %75, ptr noundef %76, ptr noundef %77)
  store i32 0, ptr %19, align 4
  br label %78

78:                                               ; preds = %95, %73
  %79 = load i32, ptr %19, align 4
  %80 = icmp ult i32 %79, 16
  br i1 %80, label %81, label %98

81:                                               ; preds = %78
  %82 = load i32, ptr %19, align 4
  %83 = zext i32 %82 to i64
  %84 = getelementptr inbounds [16 x i8], ptr %14, i64 0, i64 %83
  %85 = load i8, ptr %84, align 1
  %86 = zext i8 %85 to i32
  %87 = load ptr, ptr %9, align 8
  %88 = load i32, ptr %19, align 4
  %89 = zext i32 %88 to i64
  %90 = getelementptr inbounds i8, ptr %87, i64 %89
  %91 = load i8, ptr %90, align 1
  %92 = zext i8 %91 to i32
  %93 = xor i32 %92, %86
  %94 = trunc i32 %93 to i8
  store i8 %94, ptr %90, align 1
  br label %95

95:                                               ; preds = %81
  %96 = load i32, ptr %19, align 4
  %97 = add i32 %96, 1
  store i32 %97, ptr %19, align 4
  br label %78

98:                                               ; preds = %78
  %99 = getelementptr inbounds [16 x i8], ptr %14, i64 0, i64 0
  %100 = load ptr, ptr %7, align 8
  call void @llvm.memcpy.p0.p0.i64(ptr align 16 %99, ptr align 1 %100, i64 16, i1 false)
  %101 = load ptr, ptr %9, align 8
  %102 = getelementptr inbounds i8, ptr %101, i64 16
  store ptr %102, ptr %9, align 8
  %103 = load ptr, ptr %7, align 8
  %104 = getelementptr inbounds i8, ptr %103, i64 16
  store ptr %104, ptr %7, align 8
  %105 = load i64, ptr %15, align 8
  %106 = sub i64 %105, 16
  store i64 %106, ptr %15, align 8
  br label %70

107:                                              ; preds = %70
  %108 = load i32, ptr %12, align 4
  %109 = icmp ne i32 %108, 0
  br i1 %109, label %110, label %173

110:                                              ; preds = %107
  %111 = load i64, ptr %15, align 8
  %112 = add i64 %111, 16
  store i64 %112, ptr %15, align 8
  %113 = load ptr, ptr %9, align 8
  %114 = getelementptr inbounds i8, ptr %113, i64 -1
  %115 = load i8, ptr %114, align 1
  store i8 %115, ptr %16, align 1
  %116 = load i8, ptr %16, align 1
  %117 = zext i8 %116 to i32
  %118 = icmp sgt i32 %117, 16
  br i1 %118, label %119, label %128

119:                                              ; preds = %110
  %120 = load i8, ptr %16, align 1
  %121 = zext i8 %120 to i32
  %122 = load i64, ptr %15, align 8
  %123 = sub i64 %122, 16
  call void (ptr, ...) @cli_dbgmsg(ptr noundef @.str.200, i32 noundef %121, i64 noundef %123)
  %124 = load i64, ptr %15, align 8
  %125 = load ptr, ptr %8, align 8
  %126 = load i64, ptr %125, align 8
  %127 = sub i64 %126, %124
  store i64 %127, ptr %125, align 8
  br label %180

128:                                              ; preds = %110
  %129 = load i8, ptr %16, align 1
  %130 = zext i8 %129 to i32
  %131 = load ptr, ptr %9, align 8
  %132 = sext i32 %130 to i64
  %133 = sub i64 0, %132
  %134 = getelementptr inbounds i8, ptr %131, i64 %133
  store ptr %134, ptr %9, align 8
  store i8 1, ptr %17, align 1
  br label %135

135:                                              ; preds = %165, %128
  %136 = load i8, ptr %17, align 1
  %137 = zext i8 %136 to i32
  %138 = load i8, ptr %16, align 1
  %139 = zext i8 %138 to i32
  %140 = icmp slt i32 %137, %139
  br i1 %140, label %141, label %168

141:                                              ; preds = %135
  %142 = load ptr, ptr %9, align 8
  %143 = load i8, ptr %17, align 1
  %144 = zext i8 %143 to i64
  %145 = getelementptr inbounds i8, ptr %142, i64 %144
  %146 = load i8, ptr %145, align 1
  %147 = zext i8 %146 to i32
  %148 = load i8, ptr %16, align 1
  %149 = zext i8 %148 to i32
  %150 = icmp ne i32 %147, %149
  br i1 %150, label %151, label %164

151:                                              ; preds = %141
  %152 = load ptr, ptr %9, align 8
  %153 = load i8, ptr %17, align 1
  %154 = zext i8 %153 to i64
  %155 = getelementptr inbounds i8, ptr %152, i64 %154
  %156 = load i8, ptr %155, align 1
  %157 = zext i8 %156 to i32
  %158 = load i8, ptr %16, align 1
  %159 = zext i8 %158 to i32
  call void (ptr, ...) @cli_dbgmsg(ptr noundef @.str.201, i32 noundef %157, i32 noundef %159)
  %160 = load i64, ptr %15, align 8
  %161 = load ptr, ptr %8, align 8
  %162 = load i64, ptr %161, align 8
  %163 = sub i64 %162, %160
  store i64 %163, ptr %161, align 8
  br label %180

164:                                              ; preds = %141
  br label %165

165:                                              ; preds = %164
  %166 = load i8, ptr %17, align 1
  %167 = add i8 %166, 1
  store i8 %167, ptr %17, align 1
  br label %135

168:                                              ; preds = %135
  %169 = load i8, ptr %16, align 1
  %170 = zext i8 %169 to i64
  %171 = load i64, ptr %15, align 8
  %172 = add i64 %171, %170
  store i64 %172, ptr %15, align 8
  br label %173

173:                                              ; preds = %168, %107
  %174 = load i64, ptr %15, align 8
  %175 = load ptr, ptr %8, align 8
  %176 = load i64, ptr %175, align 8
  %177 = sub i64 %176, %174
  store i64 %177, ptr %175, align 8
  %178 = load ptr, ptr %8, align 8
  %179 = load i64, ptr %178, align 8
  call void (ptr, ...) @cli_dbgmsg(ptr noundef @.str.202, i64 noundef %179)
  br label %180

180:                                              ; preds = %173, %151, %119, %68, %46, %40, %25
  ret void
}