; Function Attrs: nounwind uwtable
define internal fastcc void @aes_256cbc_decrypt(ptr noundef %0, ptr noundef %1, ptr noundef %2, ptr noundef %3, i32 noundef %4, i32 noundef %5) unnamed_addr #0 {
  %7 = alloca [60 x i32], align 16
  %8 = alloca [16 x i8], align 16
  %9 = icmp eq ptr %0, null
  %10 = icmp eq ptr %1, null
  %or.cond = or i1 %9, %10
  br i1 %or.cond, label %11, label %12

11:                                               ; preds = %6
  tail call void (ptr, ...) @cli_dbgmsg(ptr noundef nonnull @.str.193) #22
  br label %64

12:                                               ; preds = %6
  %13 = load i64, ptr %1, align 8
  tail call void (ptr, ...) @cli_dbgmsg(ptr noundef nonnull @.str.194, i32 noundef %4, i64 noundef %13) #22
  switch i32 %4, label %14 [
    i32 32, label %16
    i32 24, label %16
    i32 16, label %16
  ]

14:                                               ; preds = %12
  %15 = shl i32 %4, 3
  tail call void (ptr, ...) @cli_dbgmsg(ptr noundef nonnull @.str.195, i32 noundef %15) #22
  br label %64

16:                                               ; preds = %12, %12, %12
  %17 = icmp ult i64 %13, 32
  br i1 %17, label %18, label %19

18:                                               ; preds = %16
  tail call void (ptr, ...) @cli_dbgmsg(ptr noundef nonnull @.str.196, i64 noundef %13) #22
  br label %64

19:                                               ; preds = %16
  %.not = icmp eq i32 %5, 0
  br i1 %.not, label %23, label %20

20:                                               ; preds = %19
  call void @llvm.memcpy.p0.p0.i64(ptr noundef nonnull align 16 dereferenceable(16) %8, ptr noundef nonnull align 1 dereferenceable(16) %0, i64 16, i1 false)
  %21 = getelementptr inbounds i8, ptr %0, i64 16
  %22 = add i64 %13, -16
  br label %24

23:                                               ; preds = %19
  call void @llvm.memset.p0.i64(ptr noundef nonnull align 16 dereferenceable(16) %8, i8 0, i64 16, i1 false)
  br label %24

24:                                               ; preds = %23, %20
  %.064 = phi i64 [ %22, %20 ], [ %13, %23 ]
  %.061 = phi ptr [ %21, %20 ], [ %0, %23 ]
  tail call void (ptr, ...) @cli_dbgmsg(ptr noundef nonnull @.str.197) #22
  %25 = shl nuw nsw i32 %4, 3
  %26 = call i32 @rijndaelSetupDecrypt(ptr noundef nonnull %7, ptr noundef %3, i32 noundef %25) #22
  %.not75 = icmp eq i32 %26, 0
  br i1 %.not75, label %27, label %.lr.ph.preheader

27:                                               ; preds = %24
  call void (ptr, ...) @cli_dbgmsg(ptr noundef nonnull @.str.198) #22
  br label %64

.lr.ph.preheader:                                 ; preds = %24
  call void (ptr, ...) @cli_dbgmsg(ptr noundef nonnull @.str.199) #22
  br label %.lr.ph

.lr.ph:                                           ; preds = %.lr.ph.preheader, %34
  %.180 = phi ptr [ %36, %34 ], [ %.061, %.lr.ph.preheader ]
  %.06379 = phi ptr [ %35, %34 ], [ %2, %.lr.ph.preheader ]
  %.16578 = phi i64 [ %37, %34 ], [ %.064, %.lr.ph.preheader ]
  call void @rijndaelDecrypt(ptr noundef nonnull %7, i32 noundef %26, ptr noundef nonnull %.180, ptr noundef %.06379) #22
  br label %28

28:                                               ; preds = %.lr.ph, %28
  %indvars.iv = phi i64 [ 0, %.lr.ph ], [ %indvars.iv.next, %28 ]
  %29 = getelementptr inbounds [16 x i8], ptr %8, i64 0, i64 %indvars.iv
  %30 = load i8, ptr %29, align 1
  %31 = getelementptr inbounds i8, ptr %.06379, i64 %indvars.iv
  %32 = load i8, ptr %31, align 1
  %33 = xor i8 %32, %30
  store i8 %33, ptr %31, align 1
  %indvars.iv.next = add nuw nsw i64 %indvars.iv, 1
  %exitcond.not = icmp eq i64 %indvars.iv.next, 16
  br i1 %exitcond.not, label %34, label %28

34:                                               ; preds = %28
  call void @llvm.memcpy.p0.p0.i64(ptr noundef nonnull align 16 dereferenceable(16) %8, ptr noundef nonnull align 1 dereferenceable(16) %.180, i64 16, i1 false)
  %35 = getelementptr inbounds i8, ptr %.06379, i64 16
  %36 = getelementptr inbounds i8, ptr %.180, i64 16
  %37 = add i64 %.16578, -16
  %38 = icmp ugt i64 %37, 15
  br i1 %38, label %.lr.ph, label %._crit_edge

._crit_edge:                                      ; preds = %34
  br i1 %.not, label %61, label %39

39:                                               ; preds = %._crit_edge
  %40 = or disjoint i64 %37, 16
  %41 = getelementptr inbounds i8, ptr %.06379, i64 15
  %42 = load i8, ptr %41, align 1
  %43 = zext i8 %42 to i32
  %44 = icmp ugt i8 %42, 16
  br i1 %44, label %45, label %48

45:                                               ; preds = %39
  call void (ptr, ...) @cli_dbgmsg(ptr noundef nonnull @.str.200, i32 noundef %43, i64 noundef %37) #22
  %46 = load i64, ptr %1, align 8
  %47 = sub i64 %46, %40
  store i64 %47, ptr %1, align 8
  br label %64

48:                                               ; preds = %39
  %49 = zext nneg i8 %42 to i64
  %50 = sub nsw i64 0, %49
  %51 = getelementptr inbounds i8, ptr %35, i64 %50
  %52 = icmp ugt i8 %42, 1
  br i1 %52, label %.lr.ph84, label %._crit_edge85

53:                                               ; preds = %.lr.ph84
  %indvars.iv.next91 = add nuw nsw i64 %indvars.iv90, 1
  %exitcond93.not = icmp eq i64 %indvars.iv.next91, %49
  br i1 %exitcond93.not, label %._crit_edge85, label %.lr.ph84

.lr.ph84:                                         ; preds = %48, %53
  %indvars.iv90 = phi i64 [ %indvars.iv.next91, %53 ], [ 1, %48 ]
  %54 = getelementptr inbounds i8, ptr %51, i64 %indvars.iv90
  %55 = load i8, ptr %54, align 1
  %.not76 = icmp eq i8 %55, %42
  br i1 %.not76, label %53, label %56

56:                                               ; preds = %.lr.ph84
  %57 = zext i8 %55 to i32
  call void (ptr, ...) @cli_dbgmsg(ptr noundef nonnull @.str.201, i32 noundef %57, i32 noundef %43) #22
  %58 = load i64, ptr %1, align 8
  %59 = sub i64 %58, %40
  store i64 %59, ptr %1, align 8
  br label %64

._crit_edge85:                                    ; preds = %53, %48
  %60 = add nuw nsw i64 %40, %49
  br label %61

61:                                               ; preds = %._crit_edge85, %._crit_edge
  %.2 = phi i64 [ %60, %._crit_edge85 ], [ %37, %._crit_edge ]
  %62 = load i64, ptr %1, align 8
  %63 = sub i64 %62, %.2
  store i64 %63, ptr %1, align 8
  call void (ptr, ...) @cli_dbgmsg(ptr noundef nonnull @.str.202, i64 noundef %63) #22
  br label %64

64:                                               ; preds = %61, %56, %45, %27, %18, %14, %11
  ret void
}